target datalayout = "e-m:e-p270:32:32-p271:32:32-p272:64:64-i64:64-i128:128-f80:128-n8:16:32:64-S128"
target triple = "x86_64-pc-linux-gnu"

@.str.17 = private unnamed_addr constant [32 x i8] c"SDL_MOUSE_DEFAULT_SYSTEM_CURSOR\00", align 1

; Function Attrs: nounwind uwtable
define hidden i32 @SDL_GetDefaultSystemCursor() #0 {
  %1 = alloca i32, align 4
  %2 = alloca ptr, align 8
  %3 = alloca i32, align 4
  call void @llvm.lifetime.start.p0(i64 4, ptr %1) #7
  store i32 0, ptr %1, align 4
  call void @llvm.lifetime.start.p0(i64 8, ptr %2) #7
  %4 = call ptr @SDL_GetHint_REAL(ptr noundef @.str.17)
  store ptr %4, ptr %2, align 8
  %5 = load ptr, ptr %2, align 8
  %6 = icmp ne ptr %5, null
  br i1 %6, label %7, label %18

7:                                                ; preds = %0
  call void @llvm.lifetime.start.p0(i64 4, ptr %3) #7
  %8 = load ptr, ptr %2, align 8
  %9 = call i32 @SDL_atoi_REAL(ptr noundef %8)
  store i32 %9, ptr %3, align 4
  %10 = load i32, ptr %3, align 4
  %11 = icmp sle i32 0, %10
  br i1 %11, label %12, label %17

12:                                               ; preds = %7
  %13 = load i32, ptr %3, align 4
  %14 = icmp slt i32 %13, 20
  br i1 %14, label %15, label %17

15:                                               ; preds = %12
  %16 = load i32, ptr %3, align 4
  store i32 %16, ptr %1, align 4
  br label %17

17:                                               ; preds = %15, %12, %7
  call void @llvm.lifetime.end.p0(i64 4, ptr %3) #7
  br label %18

18:                                               ; preds = %17, %0
  %19 = load i32, ptr %1, align 4
  call void @llvm.lifetime.end.p0(i64 8, ptr %2) #7
  call void @llvm.lifetime.end.p0(i64 4, ptr %1) #7
  ret i32 %19
}