; Function Attrs: nounwind uwtable
define hidden range(i32 0, 20) i32 @SDL_GetDefaultSystemCursor() local_unnamed_addr #0 {
  %1 = tail call ptr @SDL_GetHint_REAL(ptr noundef nonnull @.str.17) #13
  %.not = icmp eq ptr %1, null
  br i1 %.not, label %4, label %2

2:                                                ; preds = %0
  %3 = tail call i32 @SDL_atoi_REAL(ptr noundef nonnull %1) #13
  %or.cond = icmp ult i32 %3, 20
  %spec.select = select i1 %or.cond, i32 %3, i32 0
  br label %4

4:                                                ; preds = %2, %0
  %.0 = phi i32 [ %spec.select, %2 ], [ 0, %0 ]
  ret i32 %.0
}